; Function Attrs: nounwind uwtable
define range(i32 0, 2) i32 @Abc_NtkTestScorrWriteEquivConst(ptr noundef readonly captures(none) %0, ptr noundef readonly captures(none) %1, i32 noundef %2, ptr noundef captures(none) %3, i32 noundef %4) local_unnamed_addr #2 {
  %6 = getelementptr i8, ptr %1, i64 8
  %.val.i = load ptr, ptr %6, align 8, !tbaa !22
  %7 = sext i32 %2 to i64
  %8 = getelementptr inbounds i32, ptr %.val.i, i64 %7
  %9 = load i32, ptr %8, align 4, !tbaa !21
  %10 = icmp eq i32 %9, -1
  br i1 %10, label %Abc_NtkTestScorrGetName.exit.thread, label %Abc_NtkTestScorrGetName.exit

Abc_NtkTestScorrGetName.exit:                     ; preds = %5
  %11 = getelementptr inbounds nuw i8, ptr %0, i64 24
  %12 = load ptr, ptr %11, align 8, !tbaa !55
  %13 = tail call ptr @Nm_ManFindNameById(ptr noundef %12, i32 noundef %9) #11
  %14 = icmp eq ptr %13, null
  br i1 %14, label %Abc_NtkTestScorrGetName.exit.thread, label %15

15:                                               ; preds = %Abc_NtkTestScorrGetName.exit
  %.not = icmp eq i32 %4, 0
  %16 = select i1 %.not, ptr @.str.2, ptr @.str.1
  %17 = tail call i32 (ptr, ptr, ...) @fprintf(ptr noundef %3, ptr noundef nonnull @.str, ptr noundef nonnull %13, ptr noundef nonnull %16, ptr noundef nonnull @.str.3) #11
  br label %Abc_NtkTestScorrGetName.exit.thread

Abc_NtkTestScorrGetName.exit.thread:              ; preds = %5, %Abc_NtkTestScorrGetName.exit, %15
  %.0 = phi i32 [ 1, %15 ], [ 0, %Abc_NtkTestScorrGetName.exit ], [ 0, %5 ]
  ret i32 %.0
}